; Function Attrs: mustprogress nounwind uwtable
define internal void @_ZN3pro7details22destruction_dispatcherINS0_13allocated_ptrIN12_GLOBAL__N_19RectangleENSt3pmr21polymorphic_allocatorISt4byteEEEEEEvPS7_(ptr nocapture noundef readonly %0) #6 personality ptr @__gxx_personality_v0 {
  %2 = getelementptr i8, ptr %0, i64 8
  %.val1 = load ptr, ptr %2, align 8
  %.not.i.i = icmp eq ptr %.val1, null
  br i1 %.not.i.i, label %_ZSt10destroy_atIN3pro7details13allocated_ptrIN12_GLOBAL__N_19RectangleENSt3pmr21polymorphic_allocatorISt4byteEEEEEvPT_.exit, label %3

3:                                                ; preds = %1
  %.val = load ptr, ptr %0, align 8
  %4 = load ptr, ptr %.val, align 8
  %5 = getelementptr inbounds i8, ptr %4, i64 24
  %6 = load ptr, ptr %5, align 8
  invoke void %6(ptr noundef nonnull align 8 dereferenceable(8) %.val, ptr noundef nonnull %.val1, i64 noundef 16, i64 noundef 8)
          to label %_ZSt10destroy_atIN3pro7details13allocated_ptrIN12_GLOBAL__N_19RectangleENSt3pmr21polymorphic_allocatorISt4byteEEEEEvPT_.exit unwind label %7

7:                                                ; preds = %3
  %8 = landingpad { ptr, i32 }
          catch ptr null
  %9 = extractvalue { ptr, i32 } %8, 0
  tail call void @__clang_call_terminate(ptr %9) #28
  unreachable

_ZSt10destroy_atIN3pro7details13allocated_ptrIN12_GLOBAL__N_19RectangleENSt3pmr21polymorphic_allocatorISt4byteEEEEEvPT_.exit: ; preds = %1, %3
  ret void
}